; Function Attrs: null_pointer_is_valid sspstrong uwtable
define internal fastcc i32 @de_rr_eutran_csg_desc(ptr noundef %0, ptr noundef %1, i32 noundef %2) unnamed_addr #3 {
  %4 = alloca ptr, align 8
  call void @llvm.lifetime.start.p0(i64 8, ptr nonnull %4) #11
  %5 = ashr i32 %2, 3
  %6 = load i32, ptr getelementptr inbounds nuw (i8, ptr @ett_gsm_rr_rest_octets_elem, i64 104), align 8
  %7 = call ptr @proto_tree_add_subtree(ptr noundef %1, ptr noundef %0, i32 noundef %5, i32 noundef -1, i32 noundef %6, ptr noundef nonnull %4, ptr noundef nonnull @.str.1515)
  br label %8

8:                                                ; preds = %18, %3
  %.0 = phi i32 [ %2, %3 ], [ %20, %18 ]
  %9 = add i32 %.0, 1
  %10 = load i32, ptr @hf_gsm_a_rr_repeated_pcid_group, align 4
  %11 = and i32 %.0, 7
  %12 = lshr exact i32 128, %11
  %13 = ashr i32 %.0, 3
  %14 = call zeroext i8 @tvb_get_uint8(ptr noundef %0, i32 noundef %13)
  %15 = call ptr @proto_tree_add_bits_item(ptr noundef %7, i32 noundef %10, ptr noundef %0, i32 noundef %.0, i32 noundef 1, i32 noundef 0)
  %16 = zext i8 %14 to i32
  %17 = and i32 %12, %16
  %.not = icmp eq i32 %17, 0
  br i1 %.not, label %.preheader, label %18

18:                                               ; preds = %8
  %19 = call fastcc i32 @de_rr_eutran_pcid(ptr noundef %0, ptr noundef %7, i32 noundef %9)
  %20 = add i32 %19, %9
  br label %8, !llvm.loop !85

.preheader:                                       ; preds = %8, %30
  %.1 = phi i32 [ %33, %30 ], [ %9, %8 ]
  %21 = add i32 %.1, 1
  %22 = load i32, ptr @hf_gsm_a_rr_repeated_earfcn, align 4
  %23 = and i32 %.1, 7
  %24 = lshr exact i32 128, %23
  %25 = ashr i32 %.1, 3
  %26 = call zeroext i8 @tvb_get_uint8(ptr noundef %0, i32 noundef %25)
  %27 = call ptr @proto_tree_add_bits_item(ptr noundef %7, i32 noundef %22, ptr noundef %0, i32 noundef %.1, i32 noundef 1, i32 noundef 0)
  %28 = zext i8 %26 to i32
  %29 = and i32 %24, %28
  %.not21 = icmp eq i32 %29, 0
  br i1 %.not21, label %34, label %30

30:                                               ; preds = %.preheader
  %31 = load i32, ptr @hf_gsm_a_rr_csg_earfcn, align 4
  %32 = call ptr @proto_tree_add_bits_item(ptr noundef %7, i32 noundef %31, ptr noundef %0, i32 noundef %21, i32 noundef 16, i32 noundef 0)
  %33 = add i32 %.1, 17
  br label %.preheader, !llvm.loop !86

34:                                               ; preds = %.preheader
  %35 = load ptr, ptr %4, align 8
  %36 = ashr i32 %21, 3
  %reass.sub = sub nsw i32 %36, %5
  %37 = add nsw i32 %reass.sub, 1
  call void @proto_item_set_len(ptr noundef %35, i32 noundef %37)
  %38 = sub i32 %21, %2
  call void @llvm.lifetime.end.p0(i64 8, ptr nonnull %4) #11
  ret i32 %38
}